; ModuleID = '54/1074.c'
source_filename = "54/1074.c"
target datalayout = "e-m:e-p270:32:32-p271:32:32-p272:64:64-i64:64-f80:128-n8:16:32:64-S128"
target triple = "x86_64-pc-linux-gnu"

@.str = private unnamed_addr constant [6 x i8] c"%d %d\00", align 1
@.str.1 = private unnamed_addr constant [3 x i8] c"%d\00", align 1

; Function Attrs: noinline nounwind uwtable
define dso_local i32 @main() #0 {
  %1 = alloca i32, align 4
  %2 = alloca i32, align 4
  %3 = alloca i32, align 4
  %4 = alloca i32, align 4
  store i32 0, i32* %1, align 4
  %5 = call i32 (i8*, ...) @__isoc99_scanf(i8* getelementptr inbounds ([6 x i8], [6 x i8]* @.str, i64 0, i64 0), i32* %2, i32* %3)
  %6 = load i32, i32* %2, align 4
  %7 = load i32, i32* %3, align 4
  %8 = call i32 @f(i32 %6, i32 %7)
  store i32 %8, i32* %4, align 4
  %9 = load i32, i32* %4, align 4
  %10 = call i32 (i8*, ...) @printf(i8* getelementptr inbounds ([3 x i8], [3 x i8]* @.str.1, i64 0, i64 0), i32 %9)
  ret i32 0
}

declare dso_local i32 @__isoc99_scanf(i8*, ...) #1

; Function Attrs: noinline nounwind uwtable
define dso_local i32 @f(i32 %0, i32 %1) #0 {
  %3 = alloca i32, align 4
  %4 = alloca i32, align 4
  %5 = alloca i32, align 4
  %6 = alloca i32, align 4
  %7 = alloca i32, align 4
  %8 = alloca i32, align 4
  store i32 %0, i32* %3, align 4
  store i32 %1, i32* %4, align 4
  store i32 1, i32* %8, align 4
  %9 = load i32, i32* %8, align 4
  store i32 %9, i32* %5, align 4
  store i32 0, i32* %7, align 4
  br label %10

10:                                               ; preds = %44, %2
  %11 = load i32, i32* %7, align 4
  %12 = load i32, i32* %3, align 4
  %13 = sub nsw i32 %12, 1
  %14 = icmp slt i32 %11, %13
  br i1 %14, label %15, label %47

15:                                               ; preds = %10
  %16 = load i32, i32* %3, align 4
  %17 = load i32, i32* %5, align 4
  %18 = mul nsw i32 %16, %17
  %19 = load i32, i32* %4, align 4
  %20 = add nsw i32 %18, %19
  %21 = load i32, i32* %3, align 4
  %22 = sub nsw i32 %21, 1
  %23 = srem i32 %20, %22
  %24 = icmp eq i32 %23, 0
  br i1 %24, label %25, label %39

25:                                               ; preds = %15
  %26 = load i32, i32* %3, align 4
  %27 = load i32, i32* %5, align 4
  %28 = mul nsw i32 %26, %27
  %29 = load i32, i32* %4, align 4
  %30 = add nsw i32 %28, %29
  %31 = load i32, i32* %3, align 4
  %32 = sub nsw i32 %31, 1
  %33 = sdiv i32 %30, %32
  store i32 %33, i32* %5, align 4
  %34 = load i32, i32* %3, align 4
  %35 = load i32, i32* %5, align 4
  %36 = mul nsw i32 %34, %35
  %37 = load i32, i32* %4, align 4
  %38 = add nsw i32 %36, %37
  store i32 %38, i32* %6, align 4
  br label %43

39:                                               ; preds = %15
  %40 = load i32, i32* %8, align 4
  %41 = add nsw i32 %40, 1
  store i32 %41, i32* %8, align 4
  %42 = load i32, i32* %8, align 4
  store i32 %42, i32* %5, align 4
  store i32 -1, i32* %7, align 4
  br label %43

43:                                               ; preds = %39, %25
  br label %44

44:                                               ; preds = %43
  %45 = load i32, i32* %7, align 4
  %46 = add nsw i32 %45, 1
  store i32 %46, i32* %7, align 4
  br label %10

47:                                               ; preds = %10
  %48 = load i32, i32* %6, align 4
  ret i32 %48
}

declare dso_local i32 @printf(i8*, ...) #1


!llvm.module.flags = !{!0}
!llvm.ident = !{!1}

!0 = !{i32 1, !"wchar_size", i32 4}
!1 = !{!"clang version 10.0.0-4ubuntu1 "}
