; ModuleID = 'source-C-CXX/53/1074.c'
source_filename = "source-C-CXX/53/1074.c"
target datalayout = "e-m:e-p270:32:32-p271:32:32-p272:64:64-i64:64-f80:128-n8:16:32:64-S128"
target triple = "x86_64-pc-linux-gnu"

@.str = private unnamed_addr constant [6 x i8] c"%d %d\00", align 1
@.str.1 = private unnamed_addr constant [3 x i8] c"%d\00", align 1

; Function Attrs: nofree nounwind sspstrong uwtable
define dso_local i32 @main() local_unnamed_addr #0 {
  %1 = alloca i32, align 4
  %2 = alloca i32, align 4
  %3 = bitcast i32* %1 to i8*
  call void @llvm.lifetime.start.p0i8(i64 4, i8* nonnull %3) #4
  %4 = bitcast i32* %2 to i8*
  call void @llvm.lifetime.start.p0i8(i64 4, i8* nonnull %4) #4
  %5 = call i32 (i8*, ...) @__isoc99_scanf(i8* getelementptr inbounds ([6 x i8], [6 x i8]* @.str, i64 0, i64 0), i32* nonnull %1, i32* nonnull %2)
  %6 = load i32, i32* %1, align 4, !tbaa !5
  %7 = load i32, i32* %2, align 4, !tbaa !5
  %8 = add nsw i32 %6, -1
  %9 = icmp sgt i32 %6, 1
  br i1 %9, label %10, label %32

10:                                               ; preds = %0, %25
  %11 = phi i32 [ %29, %25 ], [ 1, %0 ]
  %12 = phi i32 [ %30, %25 ], [ 0, %0 ]
  %13 = phi i32 [ %27, %25 ], [ undef, %0 ]
  %14 = phi i32 [ %26, %25 ], [ 1, %0 ]
  %15 = mul nsw i32 %14, %6
  %16 = add nsw i32 %15, %7
  %17 = srem i32 %16, %8
  %18 = sdiv i32 %16, %8
  %19 = icmp eq i32 %17, 0
  br i1 %19, label %20, label %23

20:                                               ; preds = %10
  %21 = mul nsw i32 %18, %6
  %22 = add nsw i32 %21, %7
  br label %25

23:                                               ; preds = %10
  %24 = add nsw i32 %11, 1
  br label %25

25:                                               ; preds = %23, %20
  %26 = phi i32 [ %18, %20 ], [ %24, %23 ]
  %27 = phi i32 [ %22, %20 ], [ %13, %23 ]
  %28 = phi i32 [ %12, %20 ], [ -1, %23 ]
  %29 = phi i32 [ %11, %20 ], [ %24, %23 ]
  %30 = add nsw i32 %28, 1
  %31 = icmp slt i32 %30, %8
  br i1 %31, label %10, label %32, !llvm.loop !9

32:                                               ; preds = %25, %0
  %33 = phi i32 [ undef, %0 ], [ %27, %25 ]
  %34 = call i32 (i8*, ...) @printf(i8* nonnull dereferenceable(1) getelementptr inbounds ([3 x i8], [3 x i8]* @.str.1, i64 0, i64 0), i32 %33)
  call void @llvm.lifetime.end.p0i8(i64 4, i8* nonnull %4) #4
  call void @llvm.lifetime.end.p0i8(i64 4, i8* nonnull %3) #4
  ret i32 0
}

; Function Attrs: argmemonly mustprogress nofree nosync nounwind willreturn
declare void @llvm.lifetime.start.p0i8(i64 immarg, i8* nocapture) #1

; Function Attrs: nofree nounwind
declare noundef i32 @__isoc99_scanf(i8* nocapture noundef readonly, ...) local_unnamed_addr #2

; Function Attrs: nofree norecurse nosync nounwind readnone sspstrong uwtable
define dso_local i32 @f(i32 %0, i32 %1) local_unnamed_addr #3 {
  %3 = add nsw i32 %0, -1
  %4 = icmp sgt i32 %0, 1
  br i1 %4, label %5, label %27

5:                                                ; preds = %2, %20
  %6 = phi i32 [ %24, %20 ], [ 1, %2 ]
  %7 = phi i32 [ %25, %20 ], [ 0, %2 ]
  %8 = phi i32 [ %22, %20 ], [ undef, %2 ]
  %9 = phi i32 [ %21, %20 ], [ 1, %2 ]
  %10 = mul nsw i32 %9, %0
  %11 = add nsw i32 %10, %1
  %12 = srem i32 %11, %3
  %13 = sdiv i32 %11, %3
  %14 = icmp eq i32 %12, 0
  br i1 %14, label %15, label %18

15:                                               ; preds = %5
  %16 = mul nsw i32 %13, %0
  %17 = add nsw i32 %16, %1
  br label %20

18:                                               ; preds = %5
  %19 = add nsw i32 %6, 1
  br label %20

20:                                               ; preds = %15, %18
  %21 = phi i32 [ %13, %15 ], [ %19, %18 ]
  %22 = phi i32 [ %17, %15 ], [ %8, %18 ]
  %23 = phi i32 [ %7, %15 ], [ -1, %18 ]
  %24 = phi i32 [ %6, %15 ], [ %19, %18 ]
  %25 = add nsw i32 %23, 1
  %26 = icmp slt i32 %25, %3
  br i1 %26, label %5, label %27, !llvm.loop !9

27:                                               ; preds = %20, %2
  %28 = phi i32 [ undef, %2 ], [ %22, %20 ]
  ret i32 %28
}

; Function Attrs: nofree nounwind
declare noundef i32 @printf(i8* nocapture noundef readonly, ...) local_unnamed_addr #2

; Function Attrs: argmemonly mustprogress nofree nosync nounwind willreturn
declare void @llvm.lifetime.end.p0i8(i64 immarg, i8* nocapture) #1


!llvm.module.flags = !{!0, !1, !2, !3}
!llvm.ident = !{!4}

!0 = !{i32 1, !"wchar_size", i32 4}
!1 = !{i32 7, !"PIC Level", i32 2}
!2 = !{i32 7, !"PIE Level", i32 2}
!3 = !{i32 7, !"uwtable", i32 1}
!4 = !{!"clang version 13.0.0"}
!5 = !{!6, !6, i64 0}
!6 = !{!"int", !7, i64 0}
!7 = !{!"omnipotent char", !8, i64 0}
!8 = !{!"Simple C/C++ TBAA"}
!9 = distinct !{!9, !10}
!10 = !{!"llvm.loop.mustprogress"}
